target datalayout = "e-m:e-p270:32:32-p271:32:32-p272:64:64-i64:64-i128:128-f80:128-n8:16:32:64-S128"
target triple = "x86_64-pc-linux-gnu"

%struct.expert_field = type { i32, i32 }
%struct.MessageHeader = type { [4 x i8], %struct.Version, i8, i8, i32, i32, i32, ptr }
%struct.Version = type { i8, i8 }

@hf_Tango_Device_2_read_attribute_history_2_return_loop = internal global i32 0, align 4
@hf_Tango_Device_2_read_attribute_history_2_name = internal global i32 0, align 4
@hf_Tango_Device_2_read_attribute_history_2_n = internal global i32 0, align 4
@hf_Tango_DevAttrHistory_attr_failed = internal global i32 0, align 4
@hf_Tango_DevAttrHistory_errors_loop = internal global i32 0, align 4
@hf_Tango_DevError_reason = internal global i32 0, align 4
@hf_Tango_DevError_severity = internal global i32 0, align 4
@hf_Tango_DevError_desc = internal global i32 0, align 4
@hf_Tango_DevError_origin = internal global i32 0, align 4
@ei_tango_unknown_giop_msg = internal global %struct.expert_field zeroinitializer, align 4
@ei_tango_unknown_exception = internal global %struct.expert_field zeroinitializer, align 4
@ett_giop_struct = internal global i32 0, align 4
@ett_giop_sequence = internal global i32 0, align 4
@boundary = internal global i32 12, align 4
@.str.764 = private unnamed_addr constant [22 x i8] c"struct Tango_DevError\00", align 1
@.str.771 = private unnamed_addr constant [21 x i8] c"Unknown exception %d\00", align 1
@.str.772 = private unnamed_addr constant [24 x i8] c"Unknown GIOP message %d\00", align 1
@.str.869 = private unnamed_addr constant [28 x i8] c"struct Tango_AttributeValue\00", align 1
@.str.872 = private unnamed_addr constant [56 x i8] c"sequence Tango_Device_2_read_attribute_history_2_return\00", align 1
@.str.873 = private unnamed_addr constant [28 x i8] c"struct Tango_DevAttrHistory\00", align 1
@.str.874 = private unnamed_addr constant [37 x i8] c"sequence Tango_DevAttrHistory_errors\00", align 1

; Function Attrs: null_pointer_is_valid sspstrong uwtable
define internal void @decode_Tango_DevError_st(ptr noundef %0, ptr noundef %1, ptr noundef %2, ptr noundef %3, ptr noundef %4, ptr noundef %5, ptr noundef %6, i1 noundef zeroext %7) #0 {
  %9 = alloca ptr, align 8
  %10 = alloca ptr, align 8
  %11 = alloca ptr, align 8
  %12 = alloca ptr, align 8
  %13 = alloca ptr, align 8
  %14 = alloca ptr, align 8
  %15 = alloca ptr, align 8
  %16 = alloca i8, align 1
  %17 = alloca i32, align 4
  store ptr %0, ptr %9, align 8
  store ptr %1, ptr %10, align 8
  store ptr %2, ptr %11, align 8
  store ptr %3, ptr %12, align 8
  store ptr %4, ptr %13, align 8
  store ptr %5, ptr %14, align 8
  store ptr %6, ptr %15, align 8
  %18 = zext i1 %7 to i8
  store i8 %18, ptr %16, align 1
  call void @llvm.lifetime.start.p0(i64 4, ptr %17) #6
  %19 = load ptr, ptr %11, align 8
  %20 = load ptr, ptr %9, align 8
  %21 = load ptr, ptr %13, align 8
  %22 = load i8, ptr %16, align 1, !range !6, !noundef !7
  %23 = trunc i8 %22 to i1
  %24 = load i32, ptr @boundary, align 4
  %25 = load i32, ptr @hf_Tango_DevError_reason, align 4
  call void @giop_add_CDR_string(ptr noundef %19, ptr noundef %20, ptr noundef %21, i1 noundef zeroext %23, i32 noundef %24, i32 noundef %25)
  %26 = load ptr, ptr %9, align 8
  %27 = load ptr, ptr %13, align 8
  %28 = load i8, ptr %16, align 1, !range !6, !noundef !7
  %29 = trunc i8 %28 to i1
  %30 = load i32, ptr @boundary, align 4
  %31 = call i32 @get_CDR_enum(ptr noundef %26, ptr noundef %27, i1 noundef zeroext %29, i32 noundef %30)
  store i32 %31, ptr %17, align 4
  %32 = load ptr, ptr %11, align 8
  %33 = load i32, ptr @hf_Tango_DevError_severity, align 4
  %34 = load ptr, ptr %9, align 8
  %35 = load ptr, ptr %13, align 8
  %36 = load i32, ptr %35, align 4
  %37 = sub i32 %36, 4
  %38 = load i32, ptr %17, align 4
  %39 = call ptr @proto_tree_add_uint(ptr noundef %32, i32 noundef %33, ptr noundef %34, i32 noundef %37, i32 noundef 4, i32 noundef %38)
  %40 = load ptr, ptr %11, align 8
  %41 = load ptr, ptr %9, align 8
  %42 = load ptr, ptr %13, align 8
  %43 = load i8, ptr %16, align 1, !range !6, !noundef !7
  %44 = trunc i8 %43 to i1
  %45 = load i32, ptr @boundary, align 4
  %46 = load i32, ptr @hf_Tango_DevError_desc, align 4
  call void @giop_add_CDR_string(ptr noundef %40, ptr noundef %41, ptr noundef %42, i1 noundef zeroext %44, i32 noundef %45, i32 noundef %46)
  %47 = load ptr, ptr %11, align 8
  %48 = load ptr, ptr %9, align 8
  %49 = load ptr, ptr %13, align 8
  %50 = load i8, ptr %16, align 1, !range !6, !noundef !7
  %51 = trunc i8 %50 to i1
  %52 = load i32, ptr @boundary, align 4
  %53 = load i32, ptr @hf_Tango_DevError_origin, align 4
  call void @giop_add_CDR_string(ptr noundef %47, ptr noundef %48, ptr noundef %49, i1 noundef zeroext %51, i32 noundef %52, i32 noundef %53)
  call void @llvm.lifetime.end.p0(i64 4, ptr %17) #6
  ret void
}

; Function Attrs: null_pointer_is_valid sspstrong uwtable
define internal void @decode_Tango_DevAttrHistory_st(ptr noundef %0, ptr noundef %1, ptr noundef %2, ptr noundef %3, ptr noundef %4, ptr noundef %5, ptr noundef %6, i1 noundef zeroext %7) #0 {
  %9 = alloca ptr, align 8
  %10 = alloca ptr, align 8
  %11 = alloca ptr, align 8
  %12 = alloca ptr, align 8
  %13 = alloca ptr, align 8
  %14 = alloca ptr, align 8
  %15 = alloca ptr, align 8
  %16 = alloca i8, align 1
  %17 = alloca i32, align 4
  %18 = alloca i32, align 4
  %19 = alloca ptr, align 8
  %20 = alloca ptr, align 8
  %21 = alloca ptr, align 8
  store ptr %0, ptr %9, align 8
  store ptr %1, ptr %10, align 8
  store ptr %2, ptr %11, align 8
  store ptr %3, ptr %12, align 8
  store ptr %4, ptr %13, align 8
  store ptr %5, ptr %14, align 8
  store ptr %6, ptr %15, align 8
  %22 = zext i1 %7 to i8
  store i8 %22, ptr %16, align 1
  call void @llvm.lifetime.start.p0(i64 4, ptr %17) #6
  call void @llvm.lifetime.start.p0(i64 4, ptr %18) #6
  %23 = load ptr, ptr %11, align 8
  %24 = load i32, ptr @hf_Tango_DevAttrHistory_attr_failed, align 4
  %25 = load ptr, ptr %9, align 8
  %26 = load ptr, ptr %13, align 8
  %27 = load i32, ptr %26, align 4
  %28 = sub i32 %27, 1
  %29 = load ptr, ptr %9, align 8
  %30 = load ptr, ptr %13, align 8
  %31 = call zeroext i1 @get_CDR_boolean(ptr noundef %29, ptr noundef %30)
  %32 = zext i1 %31 to i64
  %33 = call ptr @proto_tree_add_boolean(ptr noundef %23, i32 noundef %24, ptr noundef %25, i32 noundef %28, i32 noundef 1, i64 noundef %32)
  call void @llvm.lifetime.start.p0(i64 8, ptr %19) #6
  %34 = load ptr, ptr %11, align 8
  %35 = load ptr, ptr %9, align 8
  %36 = load ptr, ptr %13, align 8
  %37 = load i32, ptr %36, align 4
  %38 = load i32, ptr @ett_giop_struct, align 4
  %39 = call ptr @proto_tree_add_subtree(ptr noundef %34, ptr noundef %35, i32 noundef %37, i32 noundef -1, i32 noundef %38, ptr noundef null, ptr noundef @.str.869)
  store ptr %39, ptr %19, align 8
  %40 = load ptr, ptr %9, align 8
  %41 = load ptr, ptr %10, align 8
  %42 = load ptr, ptr %19, align 8
  %43 = load ptr, ptr %12, align 8
  %44 = load ptr, ptr %13, align 8
  %45 = load ptr, ptr %14, align 8
  %46 = load ptr, ptr %15, align 8
  %47 = load i8, ptr %16, align 1, !range !6, !noundef !7
  %48 = trunc i8 %47 to i1
  call void @decode_Tango_AttributeValue_st(ptr noundef %40, ptr noundef %41, ptr noundef %42, ptr noundef %43, ptr noundef %44, ptr noundef %45, ptr noundef %46, i1 noundef zeroext %48)
  call void @llvm.lifetime.end.p0(i64 8, ptr %19) #6
  %49 = load ptr, ptr %9, align 8
  %50 = load ptr, ptr %13, align 8
  %51 = load i8, ptr %16, align 1, !range !6, !noundef !7
  %52 = trunc i8 %51 to i1
  %53 = load i32, ptr @boundary, align 4
  %54 = call i32 @get_CDR_ulong(ptr noundef %49, ptr noundef %50, i1 noundef zeroext %52, i32 noundef %53)
  store i32 %54, ptr %17, align 4
  %55 = load ptr, ptr %11, align 8
  %56 = load i32, ptr @hf_Tango_DevAttrHistory_errors_loop, align 4
  %57 = load ptr, ptr %9, align 8
  %58 = load ptr, ptr %13, align 8
  %59 = load i32, ptr %58, align 4
  %60 = sub i32 %59, 4
  %61 = load i32, ptr %17, align 4
  %62 = call ptr @proto_tree_add_uint(ptr noundef %55, i32 noundef %56, ptr noundef %57, i32 noundef %60, i32 noundef 4, i32 noundef %61)
  call void @llvm.lifetime.start.p0(i64 8, ptr %20) #6
  %63 = load ptr, ptr %11, align 8
  store ptr %63, ptr %20, align 8
  %64 = load ptr, ptr %11, align 8
  %65 = load ptr, ptr %9, align 8
  %66 = load ptr, ptr %13, align 8
  %67 = load i32, ptr %66, align 4
  %68 = load i32, ptr @ett_giop_sequence, align 4
  %69 = call ptr @proto_tree_add_subtree(ptr noundef %64, ptr noundef %65, i32 noundef %67, i32 noundef -1, i32 noundef %68, ptr noundef null, ptr noundef @.str.874)
  store ptr %69, ptr %11, align 8
  store i32 0, ptr %18, align 4
  br label %70

70:                                               ; preds = %90, %8
  %71 = load i32, ptr %18, align 4
  %72 = load i32, ptr %17, align 4
  %73 = icmp ult i32 %71, %72
  br i1 %73, label %74, label %93

74:                                               ; preds = %70
  call void @llvm.lifetime.start.p0(i64 8, ptr %21) #6
  %75 = load ptr, ptr %11, align 8
  %76 = load ptr, ptr %9, align 8
  %77 = load ptr, ptr %13, align 8
  %78 = load i32, ptr %77, align 4
  %79 = load i32, ptr @ett_giop_struct, align 4
  %80 = call ptr @proto_tree_add_subtree(ptr noundef %75, ptr noundef %76, i32 noundef %78, i32 noundef -1, i32 noundef %79, ptr noundef null, ptr noundef @.str.764)
  store ptr %80, ptr %21, align 8
  %81 = load ptr, ptr %9, align 8
  %82 = load ptr, ptr %10, align 8
  %83 = load ptr, ptr %21, align 8
  %84 = load ptr, ptr %12, align 8
  %85 = load ptr, ptr %13, align 8
  %86 = load ptr, ptr %14, align 8
  %87 = load ptr, ptr %15, align 8
  %88 = load i8, ptr %16, align 1, !range !6, !noundef !7
  %89 = trunc i8 %88 to i1
  call void @decode_Tango_DevError_st(ptr noundef %81, ptr noundef %82, ptr noundef %83, ptr noundef %84, ptr noundef %85, ptr noundef %86, ptr noundef %87, i1 noundef zeroext %89)
  call void @llvm.lifetime.end.p0(i64 8, ptr %21) #6
  br label %90

90:                                               ; preds = %74
  %91 = load i32, ptr %18, align 4
  %92 = add i32 %91, 1
  store i32 %92, ptr %18, align 4
  br label %70, !llvm.loop !104

93:                                               ; preds = %70
  %94 = load ptr, ptr %20, align 8
  store ptr %94, ptr %11, align 8
  call void @llvm.lifetime.end.p0(i64 8, ptr %20) #6
  call void @llvm.lifetime.end.p0(i64 4, ptr %18) #6
  call void @llvm.lifetime.end.p0(i64 4, ptr %17) #6
  ret void
}

; Function Attrs: null_pointer_is_valid sspstrong uwtable
define internal void @decode_Tango_Device_2_read_attribute_history_2(ptr noundef %0, ptr noundef %1, ptr noundef %2, ptr noundef %3, ptr noundef %4, ptr noundef %5, ptr noundef %6, i1 noundef zeroext %7) #0 {
  %9 = alloca ptr, align 8
  %10 = alloca ptr, align 8
  %11 = alloca ptr, align 8
  %12 = alloca ptr, align 8
  %13 = alloca ptr, align 8
  %14 = alloca ptr, align 8
  %15 = alloca ptr, align 8
  %16 = alloca i8, align 1
  %17 = alloca i32, align 4
  %18 = alloca i32, align 4
  %19 = alloca ptr, align 8
  %20 = alloca ptr, align 8
  store ptr %0, ptr %9, align 8
  store ptr %1, ptr %10, align 8
  store ptr %2, ptr %11, align 8
  store ptr %3, ptr %12, align 8
  store ptr %4, ptr %13, align 8
  store ptr %5, ptr %14, align 8
  store ptr %6, ptr %15, align 8
  %21 = zext i1 %7 to i8
  store i8 %21, ptr %16, align 1
  call void @llvm.lifetime.start.p0(i64 4, ptr %17) #6
  call void @llvm.lifetime.start.p0(i64 4, ptr %18) #6
  %22 = load ptr, ptr %14, align 8
  %23 = getelementptr inbounds nuw %struct.MessageHeader, ptr %22, i32 0, i32 3
  %24 = load i8, ptr %23, align 1
  %25 = zext i8 %24 to i32
  switch i32 %25, label %106 [
    i32 0, label %26
    i32 1, label %47
  ]

26:                                               ; preds = %8
  %27 = load ptr, ptr %11, align 8
  %28 = load ptr, ptr %9, align 8
  %29 = load ptr, ptr %13, align 8
  %30 = load i8, ptr %16, align 1, !range !6, !noundef !7
  %31 = trunc i8 %30 to i1
  %32 = load i32, ptr @boundary, align 4
  %33 = load i32, ptr @hf_Tango_Device_2_read_attribute_history_2_name, align 4
  call void @giop_add_CDR_string(ptr noundef %27, ptr noundef %28, ptr noundef %29, i1 noundef zeroext %31, i32 noundef %32, i32 noundef %33)
  %34 = load ptr, ptr %11, align 8
  %35 = load i32, ptr @hf_Tango_Device_2_read_attribute_history_2_n, align 4
  %36 = load ptr, ptr %9, align 8
  %37 = load ptr, ptr %13, align 8
  %38 = load i32, ptr %37, align 4
  %39 = sub i32 %38, 4
  %40 = load ptr, ptr %9, align 8
  %41 = load ptr, ptr %13, align 8
  %42 = load i8, ptr %16, align 1, !range !6, !noundef !7
  %43 = trunc i8 %42 to i1
  %44 = load i32, ptr @boundary, align 4
  %45 = call i32 @get_CDR_long(ptr noundef %40, ptr noundef %41, i1 noundef zeroext %43, i32 noundef %44)
  %46 = call ptr @proto_tree_add_int(ptr noundef %34, i32 noundef %35, ptr noundef %36, i32 noundef %39, i32 noundef 4, i32 noundef %45)
  br label %114

47:                                               ; preds = %8
  %48 = load ptr, ptr %14, align 8
  %49 = getelementptr inbounds nuw %struct.MessageHeader, ptr %48, i32 0, i32 6
  %50 = load i32, ptr %49, align 8
  switch i32 %50, label %98 [
    i32 0, label %51
    i32 1, label %105
  ]

51:                                               ; preds = %47
  %52 = load ptr, ptr %9, align 8
  %53 = load ptr, ptr %13, align 8
  %54 = load i8, ptr %16, align 1, !range !6, !noundef !7
  %55 = trunc i8 %54 to i1
  %56 = load i32, ptr @boundary, align 4
  %57 = call i32 @get_CDR_ulong(ptr noundef %52, ptr noundef %53, i1 noundef zeroext %55, i32 noundef %56)
  store i32 %57, ptr %17, align 4
  %58 = load ptr, ptr %11, align 8
  %59 = load i32, ptr @hf_Tango_Device_2_read_attribute_history_2_return_loop, align 4
  %60 = load ptr, ptr %9, align 8
  %61 = load ptr, ptr %13, align 8
  %62 = load i32, ptr %61, align 4
  %63 = sub i32 %62, 4
  %64 = load i32, ptr %17, align 4
  %65 = call ptr @proto_tree_add_uint(ptr noundef %58, i32 noundef %59, ptr noundef %60, i32 noundef %63, i32 noundef 4, i32 noundef %64)
  call void @llvm.lifetime.start.p0(i64 8, ptr %19) #6
  %66 = load ptr, ptr %11, align 8
  store ptr %66, ptr %19, align 8
  %67 = load ptr, ptr %11, align 8
  %68 = load ptr, ptr %9, align 8
  %69 = load ptr, ptr %13, align 8
  %70 = load i32, ptr %69, align 4
  %71 = load i32, ptr @ett_giop_sequence, align 4
  %72 = call ptr @proto_tree_add_subtree(ptr noundef %67, ptr noundef %68, i32 noundef %70, i32 noundef -1, i32 noundef %71, ptr noundef null, ptr noundef @.str.872)
  store ptr %72, ptr %11, align 8
  store i32 0, ptr %18, align 4
  br label %73

73:                                               ; preds = %93, %51
  %74 = load i32, ptr %18, align 4
  %75 = load i32, ptr %17, align 4
  %76 = icmp ult i32 %74, %75
  br i1 %76, label %77, label %96

77:                                               ; preds = %73
  call void @llvm.lifetime.start.p0(i64 8, ptr %20) #6
  %78 = load ptr, ptr %11, align 8
  %79 = load ptr, ptr %9, align 8
  %80 = load ptr, ptr %13, align 8
  %81 = load i32, ptr %80, align 4
  %82 = load i32, ptr @ett_giop_struct, align 4
  %83 = call ptr @proto_tree_add_subtree(ptr noundef %78, ptr noundef %79, i32 noundef %81, i32 noundef -1, i32 noundef %82, ptr noundef null, ptr noundef @.str.873)
  store ptr %83, ptr %20, align 8
  %84 = load ptr, ptr %9, align 8
  %85 = load ptr, ptr %10, align 8
  %86 = load ptr, ptr %20, align 8
  %87 = load ptr, ptr %12, align 8
  %88 = load ptr, ptr %13, align 8
  %89 = load ptr, ptr %14, align 8
  %90 = load ptr, ptr %15, align 8
  %91 = load i8, ptr %16, align 1, !range !6, !noundef !7
  %92 = trunc i8 %91 to i1
  call void @decode_Tango_DevAttrHistory_st(ptr noundef %84, ptr noundef %85, ptr noundef %86, ptr noundef %87, ptr noundef %88, ptr noundef %89, ptr noundef %90, i1 noundef zeroext %92)
  call void @llvm.lifetime.end.p0(i64 8, ptr %20) #6
  br label %93

93:                                               ; preds = %77
  %94 = load i32, ptr %18, align 4
  %95 = add i32 %94, 1
  store i32 %95, ptr %18, align 4
  br label %73, !llvm.loop !33

96:                                               ; preds = %73
  %97 = load ptr, ptr %19, align 8
  store ptr %97, ptr %11, align 8
  call void @llvm.lifetime.end.p0(i64 8, ptr %19) #6
  br label %105

98:                                               ; preds = %47
  %99 = load ptr, ptr %10, align 8
  %100 = load ptr, ptr %12, align 8
  %101 = load ptr, ptr %14, align 8
  %102 = getelementptr inbounds nuw %struct.MessageHeader, ptr %101, i32 0, i32 6
  %103 = load i32, ptr %102, align 8
  %104 = call ptr (ptr, ptr, ptr, ptr, ...) @expert_add_info_format(ptr noundef %99, ptr noundef %100, ptr noundef @ei_tango_unknown_exception, ptr noundef @.str.771, i32 noundef %103)
  br label %105

105:                                              ; preds = %98, %47, %96
  br label %114

106:                                              ; preds = %8
  %107 = load ptr, ptr %10, align 8
  %108 = load ptr, ptr %12, align 8
  %109 = load ptr, ptr %14, align 8
  %110 = getelementptr inbounds nuw %struct.MessageHeader, ptr %109, i32 0, i32 3
  %111 = load i8, ptr %110, align 1
  %112 = zext i8 %111 to i32
  %113 = call ptr (ptr, ptr, ptr, ptr, ...) @expert_add_info_format(ptr noundef %107, ptr noundef %108, ptr noundef @ei_tango_unknown_giop_msg, ptr noundef @.str.772, i32 noundef %112)
  br label %114

114:                                              ; preds = %106, %105, %26
  call void @llvm.lifetime.end.p0(i64 4, ptr %18) #6
  call void @llvm.lifetime.end.p0(i64 4, ptr %17) #6
  ret void
}